; Function Attrs: mustprogress uwtable
define noundef nonnull align 8 dereferenceable(72) ptr @_ZlsINSt7__cxx1112basic_stringIcSt11char_traitsIcESaIcEEEERN12colvarmodule13memory_streamES8_RKT_(ptr noundef nonnull returned align 8 dereferenceable(72) %0, ptr noundef nonnull readonly align 8 captures(none) dereferenceable(32) %1) local_unnamed_addr #0 personality ptr @__gxx_personality_v0 {
  %3 = getelementptr inbounds nuw i8, ptr %1, i64 8
  %4 = load i64, ptr %3, align 8, !tbaa !24
  %5 = add i64 %4, 8
  %6 = load ptr, ptr %0, align 8, !tbaa !4
  %.not.i.i = icmp eq ptr %6, null
  %7 = getelementptr inbounds nuw i8, ptr %0, i64 16
  %8 = select i1 %.not.i.i, ptr %7, ptr %6
  %9 = getelementptr inbounds nuw i8, ptr %8, i64 8
  %10 = load ptr, ptr %9, align 8, !tbaa !17
  %11 = load ptr, ptr %8, align 8, !tbaa !18
  %12 = ptrtoint ptr %10 to i64
  %13 = ptrtoint ptr %11 to i64
  %14 = sub i64 %12, %13
  %15 = add i64 %5, %14
  %16 = getelementptr inbounds nuw i8, ptr %0, i64 48
  %17 = load i64, ptr %16, align 8, !tbaa !19
  %.not5.i.i = icmp ugt i64 %15, %17
  br i1 %.not5.i.i, label %_ZN12colvarmodule13memory_stream20expand_output_bufferEm.exit.thread.i, label %_ZN12colvarmodule13memory_stream20expand_output_bufferEm.exit.i

_ZN12colvarmodule13memory_stream20expand_output_bufferEm.exit.thread.i: ; preds = %2
  %18 = getelementptr inbounds nuw i8, ptr %0, i64 56
  %19 = load i32, ptr %18, align 8, !tbaa !21
  %20 = or i32 %19, 1
  store i32 %20, ptr %18, align 8, !tbaa !21
  br label %_ZN12colvarmodule13memory_stream12write_objectINSt7__cxx1112basic_stringIcSt11char_traitsIcESaIcEEEEEvRKT_.exit

_ZN12colvarmodule13memory_stream20expand_output_bufferEm.exit.i: ; preds = %2
  tail call void @_ZNSt6vectorIhSaIhEE6resizeEm(ptr noundef nonnull align 8 dereferenceable(24) %8, i64 noundef %15)
  %.phi.trans.insert.i.i = getelementptr inbounds nuw i8, ptr %0, i64 56
  %.pre.i.i = load i32, ptr %.phi.trans.insert.i.i, align 8, !tbaa !20
  %21 = icmp eq i32 %.pre.i.i, 0
  br i1 %21, label %22, label %_ZN12colvarmodule13memory_stream12write_objectINSt7__cxx1112basic_stringIcSt11char_traitsIcESaIcEEEEEvRKT_.exit

22:                                               ; preds = %_ZN12colvarmodule13memory_stream20expand_output_bufferEm.exit.i
  %23 = load ptr, ptr %0, align 8, !tbaa !4
  %.not.i.i.i = icmp eq ptr %23, null
  %.in.i.i.i = select i1 %.not.i.i.i, ptr %7, ptr %23
  %24 = load ptr, ptr %.in.i.i.i, align 8, !tbaa !18
  %25 = getelementptr inbounds nuw i8, ptr %0, i64 40
  %26 = load i64, ptr %25, align 8, !tbaa !27
  %27 = getelementptr inbounds nuw i8, ptr %24, i64 %26
  store i64 %4, ptr %27, align 1
  %28 = load i64, ptr %25, align 8, !tbaa !27
  %29 = add i64 %28, 8
  store i64 %29, ptr %25, align 8, !tbaa !27
  %30 = load ptr, ptr %0, align 8, !tbaa !4
  %.not.i.i6.i = icmp eq ptr %30, null
  %.in.i.i7.i = select i1 %.not.i.i6.i, ptr %7, ptr %30
  %31 = load ptr, ptr %.in.i.i7.i, align 8, !tbaa !18
  %32 = getelementptr inbounds nuw i8, ptr %31, i64 %29
  %33 = load ptr, ptr %1, align 8, !tbaa !28
  %34 = load i64, ptr %3, align 8, !tbaa !24
  tail call void @llvm.memcpy.p0.p0.i64(ptr align 1 %32, ptr align 1 %33, i64 %34, i1 false)
  %35 = load i64, ptr %3, align 8, !tbaa !24
  %36 = load i64, ptr %25, align 8, !tbaa !27
  %37 = add i64 %36, %35
  store i64 %37, ptr %25, align 8, !tbaa !27
  br label %_ZN12colvarmodule13memory_stream12write_objectINSt7__cxx1112basic_stringIcSt11char_traitsIcESaIcEEEEEvRKT_.exit

_ZN12colvarmodule13memory_stream12write_objectINSt7__cxx1112basic_stringIcSt11char_traitsIcESaIcEEEEEvRKT_.exit: ; preds = %_ZN12colvarmodule13memory_stream20expand_output_bufferEm.exit.thread.i, %_ZN12colvarmodule13memory_stream20expand_output_bufferEm.exit.i, %22
  ret ptr %0
}